	.file	"racecondition.c"
	.text
.Ltext0:
	.globl	perform_work
	.type	perform_work, @function
perform_work:
.LFB2:
	.file 1 "racecondition.c"
	.loc 1 10 0
	.cfi_startproc
	pushq	%rbp
	.cfi_def_cfa_offset 16
	.cfi_offset 6, -16
	movq	%rsp, %rbp
	.cfi_def_cfa_register 6
	movq	%rdi, -24(%rbp)
	.loc 1 11 0
	movq	-24(%rbp), %rax
	movq	%rax, -8(%rbp)
	.loc 1 13 0
	movq	-8(%rbp), %rax
	movl	(%rax), %eax
	movl	%eax, -12(%rbp)
	.loc 1 14 0
	movq	-8(%rbp), %rax
	movq	8(%rax), %rax
	movq	-8(%rbp), %rdx
	movq	8(%rdx), %rdx
	movsd	(%rdx), %xmm2
	cvtsi2sd	-12(%rbp), %xmm0
	movsd	.LC0(%rip), %xmm1
	mulsd	%xmm0, %xmm1
	cvtsi2sd	-12(%rbp), %xmm0
	mulsd	%xmm0, %xmm1
	cvtsi2sd	-12(%rbp), %xmm0
	mulsd	%xmm1, %xmm0
	addsd	%xmm2, %xmm0
	movsd	%xmm0, (%rax)
	.loc 1 16 0
	movl	$0, %eax
	.loc 1 17 0
	popq	%rbp
	.cfi_def_cfa 7, 8
	ret
	.cfi_endproc
.LFE2:
	.size	perform_work, .-perform_work
	.section	.rodata
	.align 8
.LC2:
	.string	"The sum of sphere volumes is: %lf\n"
	.text
	.globl	main
	.type	main, @function
main:
.LFB3:
	.loc 1 19 0
	.cfi_startproc
	pushq	%rbp
	.cfi_def_cfa_offset 16
	.cfi_offset 6, -16
	movq	%rsp, %rbp
	.cfi_def_cfa_register 6
	subq	$2432, %rsp
	.loc 1 20 0
	movl	$0, %eax
	movq	%rax, -16(%rbp)
	.loc 1 25 0
	movl	$0, -4(%rbp)
	jmp	.L4
.L5:
	.loc 1 26 0 discriminator 2
	movl	-4(%rbp), %eax
	cltq
	salq	$4, %rax
	addq	%rbp, %rax
	leaq	-2416(%rax), %rdx
	movl	-4(%rbp), %eax
	movl	%eax, (%rdx)
	.loc 1 27 0 discriminator 2
	movl	-4(%rbp), %eax
	cltq
	salq	$4, %rax
	addq	%rbp, %rax
	leaq	-2408(%rax), %rdx
	leaq	-16(%rbp), %rax
	movq	%rax, (%rdx)
	.loc 1 28 0 discriminator 2
	leaq	-2416(%rbp), %rax
	movl	-4(%rbp), %edx
	movslq	%edx, %rdx
	salq	$4, %rdx
	addq	%rax, %rdx
	leaq	-816(%rbp), %rax
	movl	-4(%rbp), %ecx
	movslq	%ecx, %rcx
	salq	$3, %rcx
	addq	%rcx, %rax
	movq	%rdx, %rcx
	movl	$perform_work, %edx
	movl	$0, %esi
	movq	%rax, %rdi
	call	pthread_create
	.loc 1 25 0 discriminator 2
	addl	$1, -4(%rbp)
.L4:
	.loc 1 25 0 is_stmt 0 discriminator 1
	cmpl	$99, -4(%rbp)
	jle	.L5
	.loc 1 32 0 is_stmt 1
	movl	$0, -4(%rbp)
	jmp	.L6
.L7:
	.loc 1 33 0 discriminator 2
	movl	-4(%rbp), %eax
	cltq
	movq	-816(%rbp,%rax,8), %rax
	movl	$0, %esi
	movq	%rax, %rdi
	call	pthread_join
	.loc 1 32 0 discriminator 2
	addl	$1, -4(%rbp)
.L6:
	.loc 1 32 0 is_stmt 0 discriminator 1
	cmpl	$99, -4(%rbp)
	jle	.L7
	.loc 1 36 0 is_stmt 1
	movq	-16(%rbp), %rax
	movq	%rax, -2424(%rbp)
	movsd	-2424(%rbp), %xmm0
	movl	$.LC2, %edi
	movl	$1, %eax
	call	printf
	.loc 1 37 0
	leave
	.cfi_def_cfa 7, 8
	ret
	.cfi_endproc
.LFE3:
	.size	main, .-main
	.section	.rodata
	.align 8
.LC0:
	.long	4256301137
	.long	1074839889
	.text
.Letext0:
	.file 2 "/usr/include/bits/pthreadtypes.h"
	.section	.note.GNU-stack,"",@progbits
